Certificate:
    Data:
        Version: 3 (0x2)
        Serial Number:
            d6:1b:68:87:e6:8a:ec:ce
        Signature Algorithm: sha1WithRSAEncryption
        Issuer: C=JP, ST=Chiba, O=CW, CN=um
        Validity
            Not Before: Aug 26 02:17:24 2010 GMT
            Not After : Aug 13 02:17:24 2060 GMT
        Subject: C=JP, ST=Chiba, L=Mihama, O=User, CN=127.0.0.1
        Subject Public Key Info:
            Public Key Algorithm: rsaEncryption
                Public-Key: (2048 bit)
                Modulus:
                    00:bf:c9:11:b9:65:e2:91:f3:ef:dc:5b:30:23:05:
                    bf:4b:d6:22:e1:87:e0:a6:f3:5d:a4:cf:af:32:bd:
                    ba:04:85:6f:0e:c9:a2:c2:51:ac:79:fe:7b:a2:15:
                    23:d8:59:ca:30:65:57:28:24:07:88:b2:5c:01:fc:
                    e2:ea:6f:3d:36:7c:e1:bf:36:c4:0e:e3:37:26:76:
                    98:2b:71:f4:f7:a8:51:1b:d1:1d:e6:07:99:ed:c2:
                    49:c2:52:37:06:d3:8f:10:bd:5a:30:eb:22:83:76:
                    cf:5e:df:dc:ee:39:f7:46:a2:da:75:69:ca:4a:69:
                    35:e9:e2:1a:12:52:78:eb:ec:a8:2f:d0:51:19:9b:
                    6a:be:35:bc:6f:41:53:d8:ef:84:d1:a8:c5:53:33:
                    7d:b9:03:0e:aa:83:2d:3a:22:91:22:08:69:12:2e:
                    33:74:3e:cb:69:3b:2d:5c:c5:c7:52:89:7f:42:a7:
                    48:2e:d5:ab:2c:8e:7f:ca:4f:80:d3:a0:ae:45:bb:
                    f4:64:80:54:3f:fb:68:0f:2b:76:4b:27:42:33:3d:
                    3a:99:6e:a2:8c:43:13:26:c6:87:71:0f:3c:5d:99:
                    e1:62:19:79:71:86:42:7b:52:34:16:6b:7d:d6:10:
                    60:06:e5:34:ac:b9:d3:c6:44:67:fa:66:ad:9e:05:
                    df:ef
                Exponent: 65537 (0x10001)
        X509v3 extensions:
            X509v3 Basic Constraints: 
                CA:FALSE
            Netscape Cert Type: 
                SSL Client, S/MIME
            Netscape Comment: 
                OpenSSL Generated Certificate
            X509v3 Subject Key Identifier: 
                75:35:66:A9:10:99:92:3F:CA:45:A4:DA:16:08:D8:11:62:B1:D1:92
            X509v3 Authority Key Identifier: 
                keyid:1F:23:92:45:C5:FC:0A:AA:E1:67:C9:B1:9A:B4:74:B0:06:6E:42:77

    Signature Algorithm: sha1WithRSAEncryption
        79:8e:35:08:0f:3d:c3:3c:01:4d:75:d6:05:9e:58:be:fe:7f:
        a1:51:0e:2f:0c:e1:69:27:76:12:5f:8d:0a:15:95:e5:76:18:
        0b:f7:76:fd:2d:97:8c:d4:84:69:59:83:af:dd:14:51:0e:a7:
        c2:e0:cf:c8:e1:ad:7a:5a:14:b4:22:4d:96:5a:2d:22:71:a1:
        87:cc:75:0d:84:98:e1:9f:8e:75:5f:31:34:23:34:8e:bf:34:
        6d:8b:27:c4:86:4d:9d:37:c1:5c:2f:1a:60:28:5b:f9:fb:bb:
        50:8a:be:84:4e:3b:f2:66:26:95:ad:3e:d3:11:bc:30:f0:68:
        e2:61:95:89:7f:36:f1:c2:9c:07:57:c6:49:e9:23:52:0b:29:
        be:b6:9b:2d:0e:3f:66:f6:59:d0:78:a9:ca:c8:fe:9a:be:59:
        f6:f0:2a:9f:c1:63:8f:02:ea:91:d8:e4:e8:1f:e0:43:d7:3a:
        69:12:9a:11:cb:fe:7e:27:55:15:23:0a:81:f9:93:d5:f6:81:
        8d:2b:4d:74:1e:86:0c:6f:bb:20:6d:de:d3:d7:3b:1c:5f:7b:
        9f:2d:64:da:49:10:4c:8e:4e:28:6b:3b:ac:d1:7a:c8:83:1a:
        78:57:2e:3f:f7:e8:11:8c:73:bf:dc:c3:54:64:34:a3:64:d8:
        3e:17:28:ae
-----BEGIN CERTIFICATE-----
MIIDnTCCAoWgAwIBAgIJANYbaIfmiuzOMA0GCSqGSIb3DQEBBQUAMDcxCzAJBgNV
BAYTAkpQMQ4wDAYDVQQIDAVDaGliYTELMAkGA1UECgwCQ1cxCzAJBgNVBAMMAnVt
MCAXDTEwMDgyNjAyMTcyNFoYDzIwNjAwODEzMDIxNzI0WjBRMQswCQYDVQQGEwJK
UDEOMAwGA1UECAwFQ2hpYmExDzANBgNVBAcMBk1paGFtYTENMAsGA1UECgwEVXNl
cjESMBAGA1UEAwwJMTI3LjAuMC4xMIIBIjANBgkqhkiG9w0BAQEFAAOCAQ8AMIIB
CgKCAQEAv8kRuWXikfPv3FswIwW/S9Yi4YfgpvNdpM+vMr26BIVvDsmiwlGsef57
ohUj2FnKMGVXKCQHiLJcAfzi6m89NnzhvzbEDuM3JnaYK3H096hRG9Ed5geZ7cJJ
wlI3BtOPEL1aMOsig3bPXt/c7jn3RqLadWnKSmk16eIaElJ46+yoL9BRGZtqvjW8
b0FT2O+E0ajFUzN9uQMOqoMtOiKRIghpEi4zdD7LaTstXMXHUol/QqdILtWrLI5/
yk+A06CuRbv0ZIBUP/toDyt2SydCMz06mW6ijEMTJsaHcQ88XZnhYhl5cYZCe1I0
Fmt91hBgBuU0rLnTxkRn+matngXf7wIDAQABo4GPMIGMMAkGA1UdEwQCMAAwEQYJ
YIZIAYb4QgEBBAQDAgWgMCwGCWCGSAGG+EIBDQQfFh1PcGVuU1NMIEdlbmVyYXRl
ZCBDZXJ0aWZpY2F0ZTAdBgNVHQ4EFgQUdTVmqRCZkj/KRaTaFgjYEWKx0ZIwHwYD
VR0jBBgwFoAUHyOSRcX8CqrhZ8mxmrR0sAZuQncwDQYJKoZIhvcNAQEFBQADggEB
AHmONQgPPcM8AU111gWeWL7+f6FRDi8M4WkndhJfjQoVleV2GAv3dv0tl4zUhGlZ
g6/dFFEOp8Lgz8jhrXpaFLQiTZZaLSJxoYfMdQ2EmOGfjnVfMTQjNI6/NG2LJ8SG
TZ03wVwvGmAoW/n7u1CKvoROO/JmJpWtPtMRvDDwaOJhlYl/NvHCnAdXxknpI1IL
Kb62my0OP2b2WdB4qcrI/pq+WfbwKp/BY48C6pHY5Ogf4EPXOmkSmhHL/n4nVRUj
CoH5k9X2gY0rTXQehgxvuyBt3tPXOxxfe58tZNpJEEyOTihrO6zResiDGnhXLj/3
6BGMc7/cw1RkNKNk2D4XKK4=
-----END CERTIFICATE-----
